target datalayout = "e-m:e-p270:32:32-p271:32:32-p272:64:64-i64:64-i128:128-f80:128-n8:16:32:64-S128"
target triple = "x86_64-unknown-linux-gnu"

%struct.QmpDispatchBH = type { ptr, ptr, ptr, ptr, ptr, ptr }
%struct.QmpCommand = type { ptr, ptr, i32, i32, %union.anon, i8, ptr }
%union.anon = type { %struct.QTailQLink }
%struct.QTailQLink = type { ptr, ptr }

@.str.3 = private unnamed_addr constant [28 x i8] c"../qemu/qapi/qmp-dispatch.c\00", align 1
@.str.15 = private unnamed_addr constant [22 x i8] c"monitor_cur() == NULL\00", align 1
@__PRETTY_FUNCTION__.do_qmp_dispatch_bh = private unnamed_addr constant [32 x i8] c"void do_qmp_dispatch_bh(void *)\00", align 1

; Function Attrs: nounwind sspstrong uwtable
define internal void @do_qmp_dispatch_bh(ptr noundef %opaque) #0 {
entry:
  %opaque.addr = alloca ptr, align 8
  %data = alloca ptr, align 8
  store ptr %opaque, ptr %opaque.addr, align 8
  %0 = load ptr, ptr %opaque.addr, align 8
  store ptr %0, ptr %data, align 8
  %call = call ptr @monitor_cur()
  %cmp = icmp eq ptr %call, null
  br i1 %cmp, label %if.then, label %if.else

if.then:                                          ; preds = %entry
  br label %if.end

if.else:                                          ; preds = %entry
  call void @__assert_fail(ptr noundef @.str.15, ptr noundef @.str.3, i32 noundef 126, ptr noundef @__PRETTY_FUNCTION__.do_qmp_dispatch_bh) #5
  unreachable

if.end:                                           ; preds = %if.then
  %call1 = call ptr @qemu_coroutine_self()
  %1 = load ptr, ptr %data, align 8
  %cur_mon = getelementptr inbounds %struct.QmpDispatchBH, ptr %1, i32 0, i32 1
  %2 = load ptr, ptr %cur_mon, align 8
  %call2 = call ptr @monitor_set_cur(ptr noundef %call1, ptr noundef %2)
  %3 = load ptr, ptr %data, align 8
  %cmd = getelementptr inbounds %struct.QmpDispatchBH, ptr %3, i32 0, i32 0
  %4 = load ptr, ptr %cmd, align 8
  %fn = getelementptr inbounds %struct.QmpCommand, ptr %4, i32 0, i32 1
  %5 = load ptr, ptr %fn, align 8
  %6 = load ptr, ptr %data, align 8
  %args = getelementptr inbounds %struct.QmpDispatchBH, ptr %6, i32 0, i32 2
  %7 = load ptr, ptr %args, align 8
  %8 = load ptr, ptr %data, align 8
  %ret = getelementptr inbounds %struct.QmpDispatchBH, ptr %8, i32 0, i32 3
  %9 = load ptr, ptr %ret, align 8
  %10 = load ptr, ptr %data, align 8
  %errp = getelementptr inbounds %struct.QmpDispatchBH, ptr %10, i32 0, i32 4
  %11 = load ptr, ptr %errp, align 8
  call void %5(ptr noundef %7, ptr noundef %9, ptr noundef %11)
  %call3 = call ptr @qemu_coroutine_self()
  %call4 = call ptr @monitor_set_cur(ptr noundef %call3, ptr noundef null)
  %12 = load ptr, ptr %data, align 8
  %co = getelementptr inbounds %struct.QmpDispatchBH, ptr %12, i32 0, i32 5
  %13 = load ptr, ptr %co, align 8
  call void @aio_co_wake(ptr noundef %13)
  ret void
}