; Function Attrs: nounwind sspstrong uwtable
define internal void @do_qmp_dispatch_bh(ptr noundef readonly captures(none) %opaque) #0 {
entry:
  %call = tail call ptr @monitor_cur() #5
  %cmp = icmp eq ptr %call, null
  br i1 %cmp, label %if.end, label %if.else

if.else:                                          ; preds = %entry
  tail call void @__assert_fail(ptr noundef nonnull @.str.15, ptr noundef nonnull @.str.3, i32 noundef 126, ptr noundef nonnull @__PRETTY_FUNCTION__.do_qmp_dispatch_bh) #6
  unreachable

if.end:                                           ; preds = %entry
  %call1 = tail call ptr @qemu_coroutine_self() #5
  %cur_mon = getelementptr inbounds nuw i8, ptr %opaque, i64 8
  %0 = load ptr, ptr %cur_mon, align 8
  %call2 = tail call ptr @monitor_set_cur(ptr noundef %call1, ptr noundef %0) #5
  %1 = load ptr, ptr %opaque, align 8
  %fn = getelementptr inbounds nuw i8, ptr %1, i64 8
  %2 = load ptr, ptr %fn, align 8
  %args = getelementptr inbounds nuw i8, ptr %opaque, i64 16
  %3 = load ptr, ptr %args, align 8
  %ret = getelementptr inbounds nuw i8, ptr %opaque, i64 24
  %4 = load ptr, ptr %ret, align 8
  %errp = getelementptr inbounds nuw i8, ptr %opaque, i64 32
  %5 = load ptr, ptr %errp, align 8
  tail call void %2(ptr noundef %3, ptr noundef %4, ptr noundef %5) #5
  %call3 = tail call ptr @qemu_coroutine_self() #5
  %call4 = tail call ptr @monitor_set_cur(ptr noundef %call3, ptr noundef null) #5
  %co = getelementptr inbounds nuw i8, ptr %opaque, i64 40
  %6 = load ptr, ptr %co, align 8
  tail call void @aio_co_wake(ptr noundef %6) #5
  ret void
}